target datalayout = "e-m:e-p270:32:32-p271:32:32-p272:64:64-i64:64-i128:128-f80:128-n8:16:32:64-S128"
target triple = "x86_64-pc-linux-gnu"

%struct.Vec_Int_t_ = type { i32, i32, ptr }
%struct.Gia_Man_t_ = type { ptr, ptr, i32, i32, i32, i32, ptr, ptr, i32, i32, i32, ptr, ptr, %struct.Vec_Int_t_, %struct.Vec_Int_t_, i32, i32, i32, %struct.Vec_Int_t_, ptr, ptr, ptr, i32, i32, i32, i32, ptr, ptr, ptr, ptr, ptr, i32, i32, ptr, i32, ptr, ptr, ptr, ptr, ptr, ptr, ptr, ptr, ptr, ptr, ptr, ptr, ptr, ptr, ptr, ptr, ptr, ptr, %struct.Vec_Int_t_, %struct.Vec_Int_t_, ptr, ptr, ptr, ptr, ptr, ptr, ptr, ptr, ptr, ptr, ptr, ptr, ptr, ptr, ptr, ptr, ptr, ptr, ptr, ptr, ptr, i32, float, float, ptr, ptr, i32, ptr, ptr, ptr, ptr, ptr, ptr, ptr, ptr, ptr, ptr, ptr, ptr, ptr, ptr, ptr, i64, i64, ptr, ptr, i32, i32, i32, i32, i32, i32, i32, i32, i32, i32, i32, i32, ptr, ptr, ptr, ptr, ptr, ptr, ptr, ptr, i32, i32, i32, ptr, i32, i32, ptr, ptr, ptr, ptr, ptr, ptr, i32, i32, ptr, %struct.Vec_Int_t_, %struct.Vec_Int_t_, %struct.Vec_Int_t_, ptr, ptr, ptr }
%struct.Gia_Obj_t_ = type <{ i64, i32 }>

@.str.155 = private unnamed_addr constant [66 x i8] c"Hard limit on the number of nodes (2^29) is reached. Quitting...\0A\00", align 1
@.str.156 = private unnamed_addr constant [41 x i8] c"Extending GIA object storage: %d -> %d.\0A\00", align 1

; Function Attrs: nounwind uwtable
define internal void @Vec_IntGrow(ptr noundef %0, i32 noundef %1) #0 {
  %3 = alloca ptr, align 8
  %4 = alloca i32, align 4
  store ptr %0, ptr %3, align 8
  store i32 %1, ptr %4, align 4
  %5 = load ptr, ptr %3, align 8
  %6 = getelementptr inbounds %struct.Vec_Int_t_, ptr %5, i32 0, i32 0
  %7 = load i32, ptr %6, align 8
  %8 = load i32, ptr %4, align 4
  %9 = icmp sge i32 %7, %8
  br i1 %9, label %10, label %11

10:                                               ; preds = %2
  br label %36

11:                                               ; preds = %2
  %12 = load ptr, ptr %3, align 8
  %13 = getelementptr inbounds %struct.Vec_Int_t_, ptr %12, i32 0, i32 2
  %14 = load ptr, ptr %13, align 8
  %15 = icmp ne ptr %14, null
  br i1 %15, label %16, label %24

16:                                               ; preds = %11
  %17 = load ptr, ptr %3, align 8
  %18 = getelementptr inbounds %struct.Vec_Int_t_, ptr %17, i32 0, i32 2
  %19 = load ptr, ptr %18, align 8
  %20 = load i32, ptr %4, align 4
  %21 = sext i32 %20 to i64
  %22 = mul i64 4, %21
  %23 = call ptr @realloc(ptr noundef %19, i64 noundef %22) #14
  br label %29

24:                                               ; preds = %11
  %25 = load i32, ptr %4, align 4
  %26 = sext i32 %25 to i64
  %27 = mul i64 4, %26
  %28 = call noalias ptr @malloc(i64 noundef %27) #11
  br label %29

29:                                               ; preds = %24, %16
  %30 = phi ptr [ %23, %16 ], [ %28, %24 ]
  %31 = load ptr, ptr %3, align 8
  %32 = getelementptr inbounds %struct.Vec_Int_t_, ptr %31, i32 0, i32 2
  store ptr %30, ptr %32, align 8
  %33 = load i32, ptr %4, align 4
  %34 = load ptr, ptr %3, align 8
  %35 = getelementptr inbounds %struct.Vec_Int_t_, ptr %34, i32 0, i32 0
  store i32 %33, ptr %35, align 8
  br label %36

36:                                               ; preds = %29, %10
  ret void
}

; Function Attrs: nounwind uwtable
define internal ptr @Gia_ManObj(ptr noundef %0, i32 noundef %1) #0 {
  %3 = alloca ptr, align 8
  %4 = alloca i32, align 4
  store ptr %0, ptr %3, align 8
  store i32 %1, ptr %4, align 4
  %5 = load ptr, ptr %3, align 8
  %6 = getelementptr inbounds %struct.Gia_Man_t_, ptr %5, i32 0, i32 6
  %7 = load ptr, ptr %6, align 8
  %8 = load i32, ptr %4, align 4
  %9 = sext i32 %8 to i64
  %10 = getelementptr inbounds %struct.Gia_Obj_t_, ptr %7, i64 %9
  ret ptr %10
}

; Function Attrs: nounwind uwtable
define internal void @Vec_IntPush(ptr noundef %0, i32 noundef %1) #0 {
  %3 = alloca ptr, align 8
  %4 = alloca i32, align 4
  store ptr %0, ptr %3, align 8
  store i32 %1, ptr %4, align 4
  %5 = load ptr, ptr %3, align 8
  %6 = getelementptr inbounds %struct.Vec_Int_t_, ptr %5, i32 0, i32 1
  %7 = load i32, ptr %6, align 4
  %8 = load ptr, ptr %3, align 8
  %9 = getelementptr inbounds %struct.Vec_Int_t_, ptr %8, i32 0, i32 0
  %10 = load i32, ptr %9, align 8
  %11 = icmp eq i32 %7, %10
  br i1 %11, label %12, label %26

12:                                               ; preds = %2
  %13 = load ptr, ptr %3, align 8
  %14 = getelementptr inbounds %struct.Vec_Int_t_, ptr %13, i32 0, i32 0
  %15 = load i32, ptr %14, align 8
  %16 = icmp slt i32 %15, 16
  br i1 %16, label %17, label %19

17:                                               ; preds = %12
  %18 = load ptr, ptr %3, align 8
  call void @Vec_IntGrow(ptr noundef %18, i32 noundef 16)
  br label %25

19:                                               ; preds = %12
  %20 = load ptr, ptr %3, align 8
  %21 = load ptr, ptr %3, align 8
  %22 = getelementptr inbounds %struct.Vec_Int_t_, ptr %21, i32 0, i32 0
  %23 = load i32, ptr %22, align 8
  %24 = mul nsw i32 2, %23
  call void @Vec_IntGrow(ptr noundef %20, i32 noundef %24)
  br label %25

25:                                               ; preds = %19, %17
  br label %26

26:                                               ; preds = %25, %2
  %27 = load i32, ptr %4, align 4
  %28 = load ptr, ptr %3, align 8
  %29 = getelementptr inbounds %struct.Vec_Int_t_, ptr %28, i32 0, i32 2
  %30 = load ptr, ptr %29, align 8
  %31 = load ptr, ptr %3, align 8
  %32 = getelementptr inbounds %struct.Vec_Int_t_, ptr %31, i32 0, i32 1
  %33 = load i32, ptr %32, align 4
  %34 = add nsw i32 %33, 1
  store i32 %34, ptr %32, align 4
  %35 = sext i32 %33 to i64
  %36 = getelementptr inbounds i32, ptr %30, i64 %35
  store i32 %27, ptr %36, align 4
  ret void
}

; Function Attrs: nounwind uwtable
define internal i32 @Vec_IntSize(ptr noundef %0) #0 {
  %2 = alloca ptr, align 8
  store ptr %0, ptr %2, align 8
  %3 = load ptr, ptr %2, align 8
  %4 = getelementptr inbounds %struct.Vec_Int_t_, ptr %3, i32 0, i32 1
  %5 = load i32, ptr %4, align 4
  ret i32 %5
}

; Function Attrs: nounwind uwtable
define internal i32 @Abc_MinInt(i32 noundef %0, i32 noundef %1) #0 {
  %3 = alloca i32, align 4
  %4 = alloca i32, align 4
  store i32 %0, ptr %3, align 4
  store i32 %1, ptr %4, align 4
  %5 = load i32, ptr %3, align 4
  %6 = load i32, ptr %4, align 4
  %7 = icmp slt i32 %5, %6
  br i1 %7, label %8, label %10

8:                                                ; preds = %2
  %9 = load i32, ptr %3, align 4
  br label %12

10:                                               ; preds = %2
  %11 = load i32, ptr %4, align 4
  br label %12

12:                                               ; preds = %10, %8
  %13 = phi i32 [ %9, %8 ], [ %11, %10 ]
  ret i32 %13
}

; Function Attrs: nounwind uwtable
define internal ptr @Gia_ManAppendObj(ptr noundef %0) #0 {
  %2 = alloca ptr, align 8
  %3 = alloca i32, align 4
  store ptr %0, ptr %2, align 8
  %4 = load ptr, ptr %2, align 8
  %5 = getelementptr inbounds %struct.Gia_Man_t_, ptr %4, i32 0, i32 4
  %6 = load i32, ptr %5, align 8
  %7 = load ptr, ptr %2, align 8
  %8 = getelementptr inbounds %struct.Gia_Man_t_, ptr %7, i32 0, i32 5
  %9 = load i32, ptr %8, align 4
  %10 = icmp eq i32 %6, %9
  br i1 %10, label %11, label %116

11:                                               ; preds = %1
  %12 = load ptr, ptr %2, align 8
  %13 = getelementptr inbounds %struct.Gia_Man_t_, ptr %12, i32 0, i32 5
  %14 = load i32, ptr %13, align 4
  %15 = mul nsw i32 2, %14
  %16 = call i32 @Abc_MinInt(i32 noundef %15, i32 noundef 536870912)
  store i32 %16, ptr %3, align 4
  %17 = load ptr, ptr %2, align 8
  %18 = getelementptr inbounds %struct.Gia_Man_t_, ptr %17, i32 0, i32 4
  %19 = load i32, ptr %18, align 8
  %20 = icmp eq i32 %19, 536870912
  br i1 %20, label %21, label %23

21:                                               ; preds = %11
  %22 = call i32 (ptr, ...) @printf(ptr noundef @.str.155)
  call void @exit(i32 noundef 1) #16
  unreachable

23:                                               ; preds = %11
  %24 = load ptr, ptr %2, align 8
  %25 = getelementptr inbounds %struct.Gia_Man_t_, ptr %24, i32 0, i32 104
  %26 = load i32, ptr %25, align 4
  %27 = icmp ne i32 %26, 0
  br i1 %27, label %28, label %34

28:                                               ; preds = %23
  %29 = load ptr, ptr %2, align 8
  %30 = getelementptr inbounds %struct.Gia_Man_t_, ptr %29, i32 0, i32 5
  %31 = load i32, ptr %30, align 4
  %32 = load i32, ptr %3, align 4
  %33 = call i32 (ptr, ...) @printf(ptr noundef @.str.156, i32 noundef %31, i32 noundef %32)
  br label %34

34:                                               ; preds = %28, %23
  %35 = load ptr, ptr %2, align 8
  %36 = getelementptr inbounds %struct.Gia_Man_t_, ptr %35, i32 0, i32 6
  %37 = load ptr, ptr %36, align 8
  %38 = icmp ne ptr %37, null
  br i1 %38, label %39, label %47

39:                                               ; preds = %34
  %40 = load ptr, ptr %2, align 8
  %41 = getelementptr inbounds %struct.Gia_Man_t_, ptr %40, i32 0, i32 6
  %42 = load ptr, ptr %41, align 8
  %43 = load i32, ptr %3, align 4
  %44 = sext i32 %43 to i64
  %45 = mul i64 12, %44
  %46 = call ptr @realloc(ptr noundef %42, i64 noundef %45) #14
  br label %52

47:                                               ; preds = %34
  %48 = load i32, ptr %3, align 4
  %49 = sext i32 %48 to i64
  %50 = mul i64 12, %49
  %51 = call noalias ptr @malloc(i64 noundef %50) #11
  br label %52

52:                                               ; preds = %47, %39
  %53 = phi ptr [ %46, %39 ], [ %51, %47 ]
  %54 = load ptr, ptr %2, align 8
  %55 = getelementptr inbounds %struct.Gia_Man_t_, ptr %54, i32 0, i32 6
  store ptr %53, ptr %55, align 8
  %56 = load ptr, ptr %2, align 8
  %57 = getelementptr inbounds %struct.Gia_Man_t_, ptr %56, i32 0, i32 6
  %58 = load ptr, ptr %57, align 8
  %59 = load ptr, ptr %2, align 8
  %60 = getelementptr inbounds %struct.Gia_Man_t_, ptr %59, i32 0, i32 5
  %61 = load i32, ptr %60, align 4
  %62 = sext i32 %61 to i64
  %63 = getelementptr inbounds %struct.Gia_Obj_t_, ptr %58, i64 %62
  %64 = load i32, ptr %3, align 4
  %65 = load ptr, ptr %2, align 8
  %66 = getelementptr inbounds %struct.Gia_Man_t_, ptr %65, i32 0, i32 5
  %67 = load i32, ptr %66, align 4
  %68 = sub nsw i32 %64, %67
  %69 = sext i32 %68 to i64
  %70 = mul i64 12, %69
  call void @llvm.memset.p0.i64(ptr align 4 %63, i8 0, i64 %70, i1 false)
  %71 = load ptr, ptr %2, align 8
  %72 = getelementptr inbounds %struct.Gia_Man_t_, ptr %71, i32 0, i32 7
  %73 = load ptr, ptr %72, align 8
  %74 = icmp ne ptr %73, null
  br i1 %74, label %75, label %112

75:                                               ; preds = %52
  %76 = load ptr, ptr %2, align 8
  %77 = getelementptr inbounds %struct.Gia_Man_t_, ptr %76, i32 0, i32 7
  %78 = load ptr, ptr %77, align 8
  %79 = icmp ne ptr %78, null
  br i1 %79, label %80, label %88

80:                                               ; preds = %75
  %81 = load ptr, ptr %2, align 8
  %82 = getelementptr inbounds %struct.Gia_Man_t_, ptr %81, i32 0, i32 7
  %83 = load ptr, ptr %82, align 8
  %84 = load i32, ptr %3, align 4
  %85 = sext i32 %84 to i64
  %86 = mul i64 4, %85
  %87 = call ptr @realloc(ptr noundef %83, i64 noundef %86) #14
  br label %93

88:                                               ; preds = %75
  %89 = load i32, ptr %3, align 4
  %90 = sext i32 %89 to i64
  %91 = mul i64 4, %90
  %92 = call noalias ptr @malloc(i64 noundef %91) #11
  br label %93

93:                                               ; preds = %88, %80
  %94 = phi ptr [ %87, %80 ], [ %92, %88 ]
  %95 = load ptr, ptr %2, align 8
  %96 = getelementptr inbounds %struct.Gia_Man_t_, ptr %95, i32 0, i32 7
  store ptr %94, ptr %96, align 8
  %97 = load ptr, ptr %2, align 8
  %98 = getelementptr inbounds %struct.Gia_Man_t_, ptr %97, i32 0, i32 7
  %99 = load ptr, ptr %98, align 8
  %100 = load ptr, ptr %2, align 8
  %101 = getelementptr inbounds %struct.Gia_Man_t_, ptr %100, i32 0, i32 5
  %102 = load i32, ptr %101, align 4
  %103 = sext i32 %102 to i64
  %104 = getelementptr inbounds i32, ptr %99, i64 %103
  %105 = load i32, ptr %3, align 4
  %106 = load ptr, ptr %2, align 8
  %107 = getelementptr inbounds %struct.Gia_Man_t_, ptr %106, i32 0, i32 5
  %108 = load i32, ptr %107, align 4
  %109 = sub nsw i32 %105, %108
  %110 = sext i32 %109 to i64
  %111 = mul i64 4, %110
  call void @llvm.memset.p0.i64(ptr align 4 %104, i8 0, i64 %111, i1 false)
  br label %112

112:                                              ; preds = %93, %52
  %113 = load i32, ptr %3, align 4
  %114 = load ptr, ptr %2, align 8
  %115 = getelementptr inbounds %struct.Gia_Man_t_, ptr %114, i32 0, i32 5
  store i32 %113, ptr %115, align 4
  br label %116

116:                                              ; preds = %112, %1
  %117 = load ptr, ptr %2, align 8
  %118 = getelementptr inbounds %struct.Gia_Man_t_, ptr %117, i32 0, i32 14
  %119 = call i32 @Vec_IntSize(ptr noundef %118)
  %120 = icmp ne i32 %119, 0
  br i1 %120, label %121, label %124

121:                                              ; preds = %116
  %122 = load ptr, ptr %2, align 8
  %123 = getelementptr inbounds %struct.Gia_Man_t_, ptr %122, i32 0, i32 13
  call void @Vec_IntPush(ptr noundef %123, i32 noundef 0)
  br label %124

124:                                              ; preds = %121, %116
  %125 = load ptr, ptr %2, align 8
  %126 = load ptr, ptr %2, align 8
  %127 = getelementptr inbounds %struct.Gia_Man_t_, ptr %126, i32 0, i32 4
  %128 = load i32, ptr %127, align 8
  %129 = add nsw i32 %128, 1
  store i32 %129, ptr %127, align 8
  %130 = call ptr @Gia_ManObj(ptr noundef %125, i32 noundef %128)
  ret ptr %130
}